; Function Attrs: mustprogress nofree norecurse nosync nounwind willreturn memory(read, inaccessiblemem: none) uwtable
define internal range(i32 -1, 2) i32 @_sort_job_by_time_start(ptr noundef readonly captures(none) %0, ptr noundef readonly captures(none) %1) #5 {
  %.val = load ptr, ptr %0, align 8
  %3 = getelementptr i8, ptr %.val, i64 8
  %.val.val = load ptr, ptr %3, align 8
  %4 = load ptr, ptr %1, align 8
  %5 = getelementptr inbounds nuw i8, ptr %4, i64 8
  %6 = load ptr, ptr %5, align 8
  %7 = getelementptr inbounds nuw i8, ptr %.val.val, i64 760
  %8 = load i64, ptr %7, align 8
  %9 = icmp eq i64 %8, 0
  br i1 %9, label %23, label %10

10:                                               ; preds = %2
  %11 = getelementptr inbounds nuw i8, ptr %6, i64 760
  %12 = load i64, ptr %11, align 8
  %13 = icmp eq i64 %12, 0
  br i1 %13, label %23, label %14

14:                                               ; preds = %10
  %15 = getelementptr inbounds nuw i8, ptr %.val.val, i64 432
  %16 = load i32, ptr %15, align 8
  %17 = icmp eq i32 %16, 0
  %18 = load i64, ptr @now, align 8
  %spec.select.i = tail call i64 @llvm.smax.i64(i64 %8, i64 %18)
  %.0.i = select i1 %17, i64 %spec.select.i, i64 %8
  %19 = getelementptr inbounds nuw i8, ptr %6, i64 432
  %20 = load i32, ptr %19, align 8
  %21 = icmp eq i32 %20, 0
  %spec.select.i8 = tail call i64 @llvm.smax.i64(i64 %12, i64 %18)
  %.0.i9 = select i1 %21, i64 %spec.select.i8, i64 %12
  %.0.i10 = tail call range(i32 -1, 2) i32 @llvm.scmp.i32.i64(i64 %.0.i, i64 %.0.i9)
  %.b7 = load i1, ptr @reverse_order, align 1
  %22 = sub nsw i32 0, %.0.i10
  %spec.select = select i1 %.b7, i32 %22, i32 %.0.i10
  br label %23

23:                                               ; preds = %10, %2, %14
  %.0 = phi i32 [ %spec.select, %14 ], [ 1, %2 ], [ -1, %10 ]
  ret i32 %.0
}